target datalayout = "e-m:e-p270:32:32-p271:32:32-p272:64:64-i64:64-i128:128-f80:128-n8:16:32:64-S128"
target triple = "x86_64-pc-linux-gnu"

%struct.H5C_cache_entry_t = type { ptr, i64, i64, ptr, i8, ptr, i8, i8, i8, i8, i32, i8, i8, i8, i8, i8, i32, ptr, i32, i32, i32, i32, i32, i8, i8, ptr, ptr, ptr, ptr, ptr, ptr, i8, i32, i8, i64, ptr, i64, i64, i32, i8, i32, i32, i8, ptr, ptr, ptr }
%struct.H5F_t = type { ptr, ptr, ptr, ptr, i32, ptr, i8, i8, ptr, i32 }
%struct.H5F_shared_t = type { ptr, ptr, ptr, i8, i32, i32, %struct.H5F_mtab_t, ptr, i8, i8, i64, i32, i32, i64, i64, ptr, ptr, %struct.H5AC_cache_config_t, %struct.H5AC_cache_image_config_t, i8, i8, ptr, i64, i32, i8, i64, i64, double, i64, i64, i64, i32, i32, i32, i8, i32, ptr, ptr, ptr, ptr, i8, i8, i8, i64, ptr, ptr, i32, i64, i8, i32, i8, i64, i8, [13 x i32], [13 x i64], [13 x ptr], i8, i64, i64, [7 x i32], [7 x i32], %struct.H5F_blk_aggr_t, %struct.H5F_blk_aggr_t, i64, i64, %struct.H5F_meta_accum_t, i32, i32, [30 x ptr], %struct.H5F_object_flush_t, i8, ptr }
%struct.H5F_mtab_t = type { i32, i32, ptr }
%struct.H5AC_cache_config_t = type { i32, i8, i8, i8, [1025 x i8], i8, i8, i64, double, i64, i64, i64, i32, double, double, i8, i64, i32, double, double, i32, double, double, i8, i64, i32, i8, double, i64, i32 }
%struct.H5AC_cache_image_config_t = type { i32, i8, i8, i32 }
%struct.H5F_blk_aggr_t = type { i64, i64, i64, i64, i64 }
%struct.H5F_meta_accum_t = type { ptr, i64, i64, i64, i64, i64, i8 }
%struct.H5F_object_flush_t = type { ptr, ptr }
%struct.H5O_drvinfo_t = type { %struct.H5C_cache_entry_t, [9 x i8], i64, ptr }

@H5F_init_g = external global i8, align 1
@H5_libterm_g = external global i8, align 1
@.str.2 = private unnamed_addr constant [108 x i8] c"generated/home/dtcxzyw/WorkSpace/Projects/compilers/llvm-opt-benchmark/bench/hdf5/hdf5/src/H5Fsuper_cache.c\00", align 1
@H5E_FILE_g = external global i64, align 8
@H5E_CANTINIT_g = external global i64, align 8
@__func__.H5F__cache_drvrinfo_serialize = private unnamed_addr constant [30 x i8] c"H5F__cache_drvrinfo_serialize\00", align 1
@.str.35 = private unnamed_addr constant [36 x i8] c"unable to encode driver information\00", align 1

; Function Attrs: nounwind uwtable
define internal i32 @H5F__cache_drvrinfo_serialize(ptr noundef %0, ptr noundef %1, i64 noundef %2, ptr noundef %3) #0 {
  %5 = alloca ptr, align 8
  %6 = alloca ptr, align 8
  %7 = alloca i64, align 8
  %8 = alloca ptr, align 8
  %9 = alloca ptr, align 8
  %10 = alloca ptr, align 8
  %11 = alloca ptr, align 8
  %12 = alloca i32, align 4
  %13 = alloca i8, align 1
  store ptr %0, ptr %5, align 8, !tbaa !74
  store ptr %1, ptr %6, align 8, !tbaa !3
  store i64 %2, ptr %7, align 8, !tbaa !13
  store ptr %3, ptr %8, align 8, !tbaa !3
  call void @llvm.lifetime.start.p0(i64 8, ptr %9) #6
  %14 = load ptr, ptr %8, align 8, !tbaa !3
  store ptr %14, ptr %9, align 8, !tbaa !88
  call void @llvm.lifetime.start.p0(i64 8, ptr %10) #6
  %15 = load ptr, ptr %6, align 8, !tbaa !3
  store ptr %15, ptr %10, align 8, !tbaa !15
  call void @llvm.lifetime.start.p0(i64 8, ptr %11) #6
  call void @llvm.lifetime.start.p0(i64 4, ptr %12) #6
  store i32 0, ptr %12, align 4, !tbaa !19
  call void @llvm.lifetime.start.p0(i64 1, ptr %13) #6
  store i8 0, ptr %13, align 1, !tbaa !9
  %16 = load i8, ptr @H5F_init_g, align 1, !tbaa !9, !range !11, !noundef !12
  %17 = trunc i8 %16 to i1
  br i1 %17, label %22, label %18

18:                                               ; preds = %4
  %19 = load i8, ptr @H5_libterm_g, align 1, !tbaa !9, !range !11, !noundef !12
  %20 = trunc i8 %19 to i1
  %21 = xor i1 %20, true
  br label %22

22:                                               ; preds = %18, %4
  %23 = phi i1 [ true, %4 ], [ %21, %18 ]
  %24 = xor i1 %23, true
  %25 = xor i1 %24, true
  %26 = zext i1 %25 to i32
  %27 = sext i32 %26 to i64
  %28 = call i64 @llvm.expect.i64(i64 %27, i64 1)
  %29 = icmp ne i64 %28, 0
  br i1 %29, label %30, label %115

30:                                               ; preds = %22
  %31 = load ptr, ptr %10, align 8, !tbaa !15
  store ptr %31, ptr %11, align 8, !tbaa !15
  %32 = load ptr, ptr %10, align 8, !tbaa !15
  %33 = getelementptr inbounds nuw i8, ptr %32, i32 1
  store ptr %33, ptr %10, align 8, !tbaa !15
  store i8 0, ptr %32, align 1, !tbaa !39
  %34 = load ptr, ptr %10, align 8, !tbaa !15
  %35 = getelementptr inbounds nuw i8, ptr %34, i32 1
  store ptr %35, ptr %10, align 8, !tbaa !15
  store i8 0, ptr %34, align 1, !tbaa !39
  %36 = load ptr, ptr %10, align 8, !tbaa !15
  %37 = getelementptr inbounds nuw i8, ptr %36, i32 1
  store ptr %37, ptr %10, align 8, !tbaa !15
  store i8 0, ptr %36, align 1, !tbaa !39
  %38 = load ptr, ptr %10, align 8, !tbaa !15
  %39 = getelementptr inbounds nuw i8, ptr %38, i32 1
  store ptr %39, ptr %10, align 8, !tbaa !15
  store i8 0, ptr %38, align 1, !tbaa !39
  br label %40

40:                                               ; preds = %30
  %41 = load ptr, ptr %9, align 8, !tbaa !88
  %42 = getelementptr inbounds nuw %struct.H5O_drvinfo_t, ptr %41, i32 0, i32 2
  %43 = load i64, ptr %42, align 8, !tbaa !86
  %44 = and i64 %43, 255
  %45 = trunc i64 %44 to i8
  %46 = load ptr, ptr %10, align 8, !tbaa !15
  store i8 %45, ptr %46, align 1, !tbaa !39
  %47 = load ptr, ptr %10, align 8, !tbaa !15
  %48 = getelementptr inbounds nuw i8, ptr %47, i32 1
  store ptr %48, ptr %10, align 8, !tbaa !15
  %49 = load ptr, ptr %9, align 8, !tbaa !88
  %50 = getelementptr inbounds nuw %struct.H5O_drvinfo_t, ptr %49, i32 0, i32 2
  %51 = load i64, ptr %50, align 8, !tbaa !86
  %52 = lshr i64 %51, 8
  %53 = and i64 %52, 255
  %54 = trunc i64 %53 to i8
  %55 = load ptr, ptr %10, align 8, !tbaa !15
  store i8 %54, ptr %55, align 1, !tbaa !39
  %56 = load ptr, ptr %10, align 8, !tbaa !15
  %57 = getelementptr inbounds nuw i8, ptr %56, i32 1
  store ptr %57, ptr %10, align 8, !tbaa !15
  %58 = load ptr, ptr %9, align 8, !tbaa !88
  %59 = getelementptr inbounds nuw %struct.H5O_drvinfo_t, ptr %58, i32 0, i32 2
  %60 = load i64, ptr %59, align 8, !tbaa !86
  %61 = lshr i64 %60, 16
  %62 = and i64 %61, 255
  %63 = trunc i64 %62 to i8
  %64 = load ptr, ptr %10, align 8, !tbaa !15
  store i8 %63, ptr %64, align 1, !tbaa !39
  %65 = load ptr, ptr %10, align 8, !tbaa !15
  %66 = getelementptr inbounds nuw i8, ptr %65, i32 1
  store ptr %66, ptr %10, align 8, !tbaa !15
  %67 = load ptr, ptr %9, align 8, !tbaa !88
  %68 = getelementptr inbounds nuw %struct.H5O_drvinfo_t, ptr %67, i32 0, i32 2
  %69 = load i64, ptr %68, align 8, !tbaa !86
  %70 = lshr i64 %69, 24
  %71 = and i64 %70, 255
  %72 = trunc i64 %71 to i8
  %73 = load ptr, ptr %10, align 8, !tbaa !15
  store i8 %72, ptr %73, align 1, !tbaa !39
  %74 = load ptr, ptr %10, align 8, !tbaa !15
  %75 = getelementptr inbounds nuw i8, ptr %74, i32 1
  store ptr %75, ptr %10, align 8, !tbaa !15
  br label %76

76:                                               ; preds = %40
  br label %77

77:                                               ; preds = %76
  %78 = load ptr, ptr %5, align 8, !tbaa !74
  %79 = getelementptr inbounds nuw %struct.H5F_t, ptr %78, i32 0, i32 2
  %80 = load ptr, ptr %79, align 8, !tbaa !41
  %81 = getelementptr inbounds nuw %struct.H5F_shared_t, ptr %80, i32 0, i32 0
  %82 = load ptr, ptr %81, align 8, !tbaa !78
  %83 = load ptr, ptr %10, align 8, !tbaa !15
  %84 = load ptr, ptr %11, align 8, !tbaa !15
  %85 = getelementptr inbounds i8, ptr %84, i64 16
  %86 = call i32 @H5FD_sb_encode(ptr noundef %82, ptr noundef %83, ptr noundef %85)
  %87 = icmp slt i32 %86, 0
  br i1 %87, label %88, label %107

88:                                               ; preds = %77
  br label %89

89:                                               ; preds = %88
  br label %90

90:                                               ; preds = %89
  br label %91

91:                                               ; preds = %90
  %92 = load i64, ptr @H5E_FILE_g, align 8, !tbaa !13
  %93 = load i64, ptr @H5E_CANTINIT_g, align 8, !tbaa !13
  %94 = call i32 (ptr, ptr, i32, i64, i64, ptr, ...) @H5E_printf_stack(ptr noundef @.str.2, ptr noundef @__func__.H5F__cache_drvrinfo_serialize, i32 noundef 977, i64 noundef %92, i64 noundef %93, ptr noundef @.str.35)
  br label %95

95:                                               ; preds = %91
  br label %96

96:                                               ; preds = %95
  store i8 1, ptr %13, align 1, !tbaa !9
  %97 = load i8, ptr %13, align 1, !tbaa !9, !range !11, !noundef !12
  %98 = trunc i8 %97 to i1
  %99 = zext i1 %98 to i8
  store i8 %99, ptr %13, align 1, !tbaa !9
  br label %100

100:                                              ; preds = %96
  br label %101

101:                                              ; preds = %100
  br label %102

102:                                              ; preds = %101
  store i32 -1, ptr %12, align 4, !tbaa !19
  br label %114

103:                                              ; No predecessors!
  br label %104

104:                                              ; preds = %103
  br label %105

105:                                              ; preds = %104
  br label %106

106:                                              ; preds = %105
  br label %107

107:                                              ; preds = %106, %77
  %108 = load ptr, ptr %9, align 8, !tbaa !88
  %109 = getelementptr inbounds nuw %struct.H5O_drvinfo_t, ptr %108, i32 0, i32 2
  %110 = load i64, ptr %109, align 8, !tbaa !86
  %111 = add i64 8, %110
  %112 = load ptr, ptr %10, align 8, !tbaa !15
  %113 = getelementptr inbounds nuw i8, ptr %112, i64 %111
  store ptr %113, ptr %10, align 8, !tbaa !15
  br label %114

114:                                              ; preds = %107, %102
  br label %115

115:                                              ; preds = %114, %22
  %116 = load i32, ptr %12, align 4, !tbaa !19
  call void @llvm.lifetime.end.p0(i64 1, ptr %13) #6
  call void @llvm.lifetime.end.p0(i64 4, ptr %12) #6
  call void @llvm.lifetime.end.p0(i64 8, ptr %11) #6
  call void @llvm.lifetime.end.p0(i64 8, ptr %10) #6
  call void @llvm.lifetime.end.p0(i64 8, ptr %9) #6
  ret i32 %116
}