; Function Attrs: nounwind uwtable
define internal range(i32 -1, 1) i32 @H5F__cache_drvrinfo_serialize(ptr noundef readonly captures(none) %0, ptr noundef %1, i64 %2, ptr noundef readonly captures(none) %3) #1 {
  %5 = load i8, ptr @H5F_init_g, align 1, !tbaa !3, !range !7, !noundef !8
  %6 = trunc nuw i8 %5 to i1
  %7 = load i8, ptr @H5_libterm_g, align 1, !range !7
  %8 = trunc nuw i8 %7 to i1
  %9 = xor i1 %8, true
  %10 = select i1 %6, i1 true, i1 %9
  br i1 %10, label %11, label %39, !prof !9

11:                                               ; preds = %4
  %12 = getelementptr inbounds nuw i8, ptr %1, i64 4
  %13 = getelementptr inbounds nuw i8, ptr %3, i64 264
  store i32 0, ptr %1, align 1
  %14 = load i64, ptr %13, align 8, !tbaa !75
  %15 = trunc i64 %14 to i8
  store i8 %15, ptr %12, align 1, !tbaa !31
  %16 = getelementptr inbounds nuw i8, ptr %1, i64 5
  %17 = load i64, ptr %13, align 8, !tbaa !75
  %18 = lshr i64 %17, 8
  %19 = trunc i64 %18 to i8
  store i8 %19, ptr %16, align 1, !tbaa !31
  %20 = getelementptr inbounds nuw i8, ptr %1, i64 6
  %21 = load i64, ptr %13, align 8, !tbaa !75
  %22 = lshr i64 %21, 16
  %23 = trunc i64 %22 to i8
  store i8 %23, ptr %20, align 1, !tbaa !31
  %24 = getelementptr inbounds nuw i8, ptr %1, i64 7
  %25 = load i64, ptr %13, align 8, !tbaa !75
  %26 = lshr i64 %25, 24
  %27 = trunc i64 %26 to i8
  store i8 %27, ptr %24, align 1, !tbaa !31
  %28 = getelementptr inbounds nuw i8, ptr %1, i64 8
  %29 = getelementptr inbounds nuw i8, ptr %0, i64 16
  %30 = load ptr, ptr %29, align 8, !tbaa !34
  %31 = load ptr, ptr %30, align 8, !tbaa !71
  %32 = getelementptr inbounds nuw i8, ptr %1, i64 16
  %33 = tail call i32 @H5FD_sb_encode(ptr noundef %31, ptr noundef nonnull %28, ptr noundef nonnull %32) #6
  %34 = icmp slt i32 %33, 0
  br i1 %34, label %35, label %39

35:                                               ; preds = %11
  %36 = load i64, ptr @H5E_FILE_g, align 8, !tbaa !10
  %37 = load i64, ptr @H5E_CANTINIT_g, align 8, !tbaa !10
  %38 = tail call i32 (ptr, ptr, i32, i64, i64, ptr, ...) @H5E_printf_stack(ptr noundef nonnull @.str.2, ptr noundef nonnull @__func__.H5F__cache_drvrinfo_serialize, i32 noundef 977, i64 noundef %36, i64 noundef %37, ptr noundef nonnull @.str.35) #6
  br label %39

39:                                               ; preds = %11, %35, %4
  %.0 = phi i32 [ -1, %35 ], [ 0, %4 ], [ 0, %11 ]
  ret i32 %.0
}